; Function Attrs: nounwind uwtable
define ptr @l_Lake_Package_mkTargetCommands___boxed(ptr noundef %0, ptr noundef %1, ptr noundef %2, ptr noundef %3) local_unnamed_addr #0 {
  %5 = getelementptr inbounds nuw i8, ptr %0, i64 88
  %6 = load ptr, ptr %5, align 8, !tbaa !12
  %7 = getelementptr i8, ptr %6, i64 8
  %.val.i = load i64, ptr %7, align 8, !tbaa !4
  %8 = shl i64 %.val.i, 1
  %9 = or disjoint i64 %8, 1
  %10 = inttoptr i64 %9 to ptr
  %11 = tail call ptr @l_Array_filterMapM___at_Lake_Package_mkTargetCommands___spec__1(ptr readonly poison, ptr noundef %1, ptr noundef %2, ptr noundef %3, ptr noundef %6, ptr noundef nonnull inttoptr (i64 1 to ptr), ptr noundef nonnull %10)
  %12 = ptrtoint ptr %2 to i64
  %13 = and i64 %12, 1
  %.not = icmp eq i64 %13, 0
  br i1 %.not, label %14, label %lean_dec.exit9

14:                                               ; preds = %4
  %15 = load i32, ptr %2, align 4, !tbaa !8
  %16 = icmp sgt i32 %15, 1
  br i1 %16, label %17, label %19, !prof !11

17:                                               ; preds = %14
  %18 = add nsw i32 %15, -1
  store i32 %18, ptr %2, align 4, !tbaa !8
  br label %lean_dec.exit9

19:                                               ; preds = %14
  %.not.i = icmp eq i32 %15, 0
  br i1 %.not.i, label %lean_dec.exit9, label %20

20:                                               ; preds = %19
  tail call void @lean_dec_ref_cold(ptr noundef nonnull %2) #6
  br label %lean_dec.exit9

lean_dec.exit9:                                   ; preds = %20, %19, %17, %4
  %21 = ptrtoint ptr %1 to i64
  %22 = and i64 %21, 1
  %.not14 = icmp eq i64 %22, 0
  br i1 %.not14, label %23, label %lean_dec.exit8

23:                                               ; preds = %lean_dec.exit9
  %24 = load i32, ptr %1, align 4, !tbaa !8
  %25 = icmp sgt i32 %24, 1
  br i1 %25, label %26, label %28, !prof !11

26:                                               ; preds = %23
  %27 = add nsw i32 %24, -1
  store i32 %27, ptr %1, align 4, !tbaa !8
  br label %lean_dec.exit8

28:                                               ; preds = %23
  %.not.i10 = icmp eq i32 %24, 0
  br i1 %.not.i10, label %lean_dec.exit8, label %29

29:                                               ; preds = %28
  tail call void @lean_dec_ref_cold(ptr noundef nonnull %1) #6
  br label %lean_dec.exit8

lean_dec.exit8:                                   ; preds = %29, %28, %26, %lean_dec.exit9
  %30 = ptrtoint ptr %0 to i64
  %31 = and i64 %30, 1
  %.not15 = icmp eq i64 %31, 0
  br i1 %.not15, label %32, label %lean_dec.exit

32:                                               ; preds = %lean_dec.exit8
  %33 = load i32, ptr %0, align 4, !tbaa !8
  %34 = icmp sgt i32 %33, 1
  br i1 %34, label %35, label %37, !prof !11

35:                                               ; preds = %32
  %36 = add nsw i32 %33, -1
  store i32 %36, ptr %0, align 4, !tbaa !8
  br label %lean_dec.exit

37:                                               ; preds = %32
  %.not.i12 = icmp eq i32 %33, 0
  br i1 %.not.i12, label %lean_dec.exit, label %38

38:                                               ; preds = %37
  tail call void @lean_dec_ref_cold(ptr noundef nonnull %0) #6
  br label %lean_dec.exit

lean_dec.exit:                                    ; preds = %38, %37, %35, %lean_dec.exit8
  ret ptr %11
}